target datalayout = "e-m:e-p270:32:32-p271:32:32-p272:64:64-i64:64-i128:128-f80:128-n8:16:32:64-S128"
target triple = "x86_64-pc-linux-gnu"

%"struct.boost::atomics::detail::lock_pool::(anonymous namespace)::wait_state_base" = type { i64, i64 }
%"struct.boost::atomics::detail::lock_pool::(anonymous namespace)::wait_state" = type { %"struct.boost::atomics::detail::lock_pool::(anonymous namespace)::wait_state_base", i32, i32 }
%struct.timespec = type { i64, i64 }

; Function Attrs: alwaysinline mustprogress nounwind uwtable
define linkonce_odr hidden noundef i32 @_ZN5boost7atomics6detail12futex_invokeEPvijPKvS2_j(ptr noundef %0, i32 noundef %1, i32 noundef %2, ptr noundef %3, ptr noundef %4, i32 noundef %5) #2 comdat {
  %7 = alloca ptr, align 8
  %8 = alloca i32, align 4
  %9 = alloca i32, align 4
  %10 = alloca ptr, align 8
  %11 = alloca ptr, align 8
  %12 = alloca i32, align 4
  store ptr %0, ptr %7, align 8, !tbaa !3
  store i32 %1, ptr %8, align 4, !tbaa !11
  store i32 %2, ptr %9, align 4, !tbaa !11
  store ptr %3, ptr %10, align 8, !tbaa !3
  store ptr %4, ptr %11, align 8, !tbaa !3
  store i32 %5, ptr %12, align 4, !tbaa !11
  %13 = load ptr, ptr %7, align 8, !tbaa !3
  %14 = load i32, ptr %8, align 4, !tbaa !11
  %15 = load i32, ptr %9, align 4, !tbaa !11
  %16 = load ptr, ptr %10, align 8, !tbaa !3
  %17 = load ptr, ptr %11, align 8, !tbaa !3
  %18 = load i32, ptr %12, align 4, !tbaa !11
  %19 = call i64 (i64, ...) @syscall(i64 noundef 202, ptr noundef %13, i32 noundef %14, i32 noundef %15, ptr noundef %16, ptr noundef %17, i32 noundef %18) #14
  %20 = trunc i64 %19 to i32
  ret i32 %20
}

; Function Attrs: alwaysinline mustprogress nounwind uwtable
define linkonce_odr hidden noundef i32 @_ZN5boost7atomics6detail18futex_wait_privateEPvj(ptr noundef %0, i32 noundef %1) #2 comdat {
  %3 = alloca ptr, align 8
  %4 = alloca i32, align 4
  store ptr %0, ptr %3, align 8, !tbaa !3
  store i32 %1, ptr %4, align 4, !tbaa !11
  %5 = load ptr, ptr %3, align 8, !tbaa !3
  %6 = load i32, ptr %4, align 4, !tbaa !11
  %7 = call noundef i32 @_ZN5boost7atomics6detail12futex_invokeEPvijPKvS2_j(ptr noundef %5, i32 noundef 128, i32 noundef %6, ptr noundef null, ptr noundef null, i32 noundef 0) #14
  ret i32 %7
}

; Function Attrs: alwaysinline mustprogress nounwind uwtable
define linkonce_odr hidden void @_ZN5boost7atomics6detail9wait_someEv() #2 comdat personality ptr @__gxx_personality_v0 {
  %1 = alloca %struct.timespec, align 8
  call void @llvm.lifetime.start.p0(i64 16, ptr %1) #14
  call void @llvm.memset.p0.i64(ptr align 8 %1, i8 0, i64 16, i1 false)
  %2 = getelementptr inbounds nuw %struct.timespec, ptr %1, i32 0, i32 0
  store i64 0, ptr %2, align 8, !tbaa !32
  %3 = getelementptr inbounds nuw %struct.timespec, ptr %1, i32 0, i32 1
  store i64 1000, ptr %3, align 8, !tbaa !34
  %4 = invoke i32 @nanosleep(ptr noundef %1, ptr noundef null)
          to label %5 unwind label %6

5:                                                ; preds = %0
  call void @llvm.lifetime.end.p0(i64 16, ptr %1) #14
  ret void

6:                                                ; preds = %0
  %7 = landingpad { ptr, i32 }
          catch ptr null
  %8 = extractvalue { ptr, i32 } %7, 0
  call void @__clang_call_terminate(ptr %8) #16
  unreachable
}

; Function Attrs: inlinehint mustprogress nounwind uwtable
define internal void @_ZN5boost7atomics6detail9lock_pool12_GLOBAL__N_110wait_state4waitERNS3_10lock_stateE(ptr noundef nonnull align 8 dereferenceable(24) %0, ptr noundef nonnull align 8 dereferenceable(24) %1) #3 align 2 {
  %3 = alloca ptr, align 8
  %4 = alloca ptr, align 8
  %5 = alloca i32, align 4
  %6 = alloca i32, align 4
  %7 = alloca i32, align 4
  store ptr %0, ptr %3, align 8, !tbaa !3
  store ptr %1, ptr %4, align 8, !tbaa !3
  %8 = load ptr, ptr %3, align 8
  call void @llvm.lifetime.start.p0(i64 4, ptr %5) #14
  %9 = getelementptr inbounds nuw %"struct.boost::atomics::detail::lock_pool::(anonymous namespace)::wait_state", ptr %8, i32 0, i32 1
  %10 = load i32, ptr %9, align 8, !tbaa !28
  store i32 %10, ptr %5, align 4, !tbaa !13
  %11 = getelementptr inbounds nuw %"struct.boost::atomics::detail::lock_pool::(anonymous namespace)::wait_state", ptr %8, i32 0, i32 2
  %12 = load i32, ptr %11, align 4, !tbaa !30
  %13 = add i32 %12, 1
  store i32 %13, ptr %11, align 4, !tbaa !30
  %14 = load ptr, ptr %4, align 8, !tbaa !3
  call void @_ZN5boost7atomics6detail9lock_pool12_GLOBAL__N_110lock_state6unlockEv(ptr noundef nonnull align 8 dereferenceable(24) %14) #14
  br label %15

15:                                               ; preds = %29, %2
  br label %16

16:                                               ; preds = %15
  call void @llvm.lifetime.start.p0(i64 4, ptr %6) #14
  %17 = getelementptr inbounds nuw %"struct.boost::atomics::detail::lock_pool::(anonymous namespace)::wait_state", ptr %8, i32 0, i32 1
  %18 = load i32, ptr %5, align 4, !tbaa !13
  %19 = call noundef i32 @_ZN5boost7atomics6detail18futex_wait_privateEPvj(ptr noundef %17, i32 noundef %18) #14
  store i32 %19, ptr %6, align 4, !tbaa !11
  %20 = load i32, ptr %6, align 4, !tbaa !11
  %21 = icmp ne i32 %20, 4
  %22 = zext i1 %21 to i64
  %23 = call i64 @llvm.expect.i64(i64 %22, i64 1)
  %24 = icmp ne i64 %23, 0
  br i1 %24, label %25, label %26

25:                                               ; preds = %16
  store i32 3, ptr %7, align 4
  br label %27

26:                                               ; preds = %16
  store i32 0, ptr %7, align 4
  br label %27

27:                                               ; preds = %26, %25
  call void @llvm.lifetime.end.p0(i64 4, ptr %6) #14
  %28 = load i32, ptr %7, align 4
  switch i32 %28, label %35 [
    i32 0, label %29
    i32 3, label %30
  ]

29:                                               ; preds = %27
  br label %15, !llvm.loop !31

30:                                               ; preds = %27
  %31 = load ptr, ptr %4, align 8, !tbaa !3
  call void @_ZN5boost7atomics6detail9lock_pool12_GLOBAL__N_110lock_state9long_lockEv(ptr noundef nonnull align 8 dereferenceable(24) %31) #14
  %32 = getelementptr inbounds nuw %"struct.boost::atomics::detail::lock_pool::(anonymous namespace)::wait_state", ptr %8, i32 0, i32 2
  %33 = load i32, ptr %32, align 4, !tbaa !30
  %34 = add i32 %33, -1
  store i32 %34, ptr %32, align 4, !tbaa !30
  call void @llvm.lifetime.end.p0(i64 4, ptr %5) #14
  ret void

35:                                               ; preds = %27
  unreachable
}

; Function Attrs: mustprogress nounwind uwtable
define void @_ZN5boost7atomics6detail9lock_pool4waitEPvS3_(ptr noundef %0, ptr noundef %1) #0 {
  %3 = alloca ptr, align 8
  %4 = alloca ptr, align 8
  %5 = alloca ptr, align 8
  %6 = alloca ptr, align 8
  store ptr %0, ptr %3, align 8, !tbaa !3
  store ptr %1, ptr %4, align 8, !tbaa !3
  call void @llvm.lifetime.start.p0(i64 8, ptr %5) #14
  %7 = load ptr, ptr %3, align 8, !tbaa !3
  store ptr %7, ptr %5, align 8, !tbaa !3
  call void @llvm.lifetime.start.p0(i64 8, ptr %6) #14
  %8 = load ptr, ptr %4, align 8, !tbaa !3
  store ptr %8, ptr %6, align 8, !tbaa !3
  %9 = load ptr, ptr %6, align 8, !tbaa !3
  %10 = icmp ne ptr %9, null
  %11 = zext i1 %10 to i64
  %12 = call i64 @llvm.expect.i64(i64 %11, i64 1)
  %13 = icmp ne i64 %12, 0
  br i1 %13, label %14, label %17

14:                                               ; preds = %2
  %15 = load ptr, ptr %6, align 8, !tbaa !3
  %16 = load ptr, ptr %5, align 8, !tbaa !3
  call void @_ZN5boost7atomics6detail9lock_pool12_GLOBAL__N_110wait_state4waitERNS3_10lock_stateE(ptr noundef nonnull align 8 dereferenceable(24) %15, ptr noundef nonnull align 8 dereferenceable(24) %16) #14
  br label %20

17:                                               ; preds = %2
  %18 = load ptr, ptr %5, align 8, !tbaa !3
  call void @_ZN5boost7atomics6detail9lock_pool12_GLOBAL__N_110lock_state6unlockEv(ptr noundef nonnull align 8 dereferenceable(24) %18) #14
  call void @_ZN5boost7atomics6detail9wait_someEv() #14
  %19 = load ptr, ptr %5, align 8, !tbaa !3
  call void @_ZN5boost7atomics6detail9lock_pool12_GLOBAL__N_110lock_state9long_lockEv(ptr noundef nonnull align 8 dereferenceable(24) %19) #14
  br label %20

20:                                               ; preds = %17, %14
  call void @llvm.lifetime.end.p0(i64 8, ptr %6) #14
  call void @llvm.lifetime.end.p0(i64 8, ptr %5) #14
  ret void
}