; Function Attrs: mustprogress nounwind uwtable
define void @_ZN5boost7atomics6detail9lock_pool4waitEPvS3_(ptr noundef %0, ptr noundef %1) local_unnamed_addr #2 personality ptr @__gxx_personality_v0 {
  %3 = alloca %struct.timespec, align 8
  %.not = icmp eq ptr %1, null
  br i1 %.not, label %58, label %4, !prof !16

4:                                                ; preds = %2
  %5 = getelementptr inbounds nuw i8, ptr %1, i64 16
  %6 = load i32, ptr %5, align 8, !tbaa !25
  %7 = getelementptr inbounds nuw i8, ptr %1, i64 20
  %8 = load i32, ptr %7, align 4, !tbaa !27
  %9 = add i32 %8, 1
  store i32 %9, ptr %7, align 4, !tbaa !27
  %10 = load atomic volatile i32, ptr %0 monotonic, align 4
  %11 = and i32 %10, -2
  %12 = add i32 %11, 4
  %13 = cmpxchg weak volatile ptr %0, i32 %10, i32 %12 release monotonic, align 4
  %14 = extractvalue { i32, i1 } %13, 1
  br i1 %14, label %._crit_edge.i.i, label %_ZN5boost7atomics6detail26core_operations_gcc_atomicILm4ELb0ELb0EE21compare_exchange_weakERVjRjjNS_12memory_orderES7_.exit.i.i

_ZN5boost7atomics6detail26core_operations_gcc_atomicILm4ELb0ELb0EE21compare_exchange_weakERVjRjjNS_12memory_orderES7_.exit.i.i: ; preds = %4, %_ZN5boost7atomics6detail26core_operations_gcc_atomicILm4ELb0ELb0EE21compare_exchange_weakERVjRjjNS_12memory_orderES7_.exit.i.i
  %15 = phi { i32, i1 } [ %19, %_ZN5boost7atomics6detail26core_operations_gcc_atomicILm4ELb0ELb0EE21compare_exchange_weakERVjRjjNS_12memory_orderES7_.exit.i.i ], [ %13, %4 ]
  %16 = extractvalue { i32, i1 } %15, 0
  %17 = and i32 %16, -2
  %18 = add i32 %17, 4
  %19 = cmpxchg weak volatile ptr %0, i32 %16, i32 %18 release monotonic, align 4
  %20 = extractvalue { i32, i1 } %19, 1
  br i1 %20, label %._crit_edge.i.i, label %_ZN5boost7atomics6detail26core_operations_gcc_atomicILm4ELb0ELb0EE21compare_exchange_weakERVjRjjNS_12memory_orderES7_.exit.i.i

._crit_edge.i.i:                                  ; preds = %_ZN5boost7atomics6detail26core_operations_gcc_atomicILm4ELb0ELb0EE21compare_exchange_weakERVjRjjNS_12memory_orderES7_.exit.i.i, %4
  %.0.lcssa.i.i = phi i32 [ %10, %4 ], [ %16, %_ZN5boost7atomics6detail26core_operations_gcc_atomicILm4ELb0ELb0EE21compare_exchange_weakERVjRjjNS_12memory_orderES7_.exit.i.i ]
  %.lcssa.i.i = phi i32 [ %12, %4 ], [ %18, %_ZN5boost7atomics6detail26core_operations_gcc_atomicILm4ELb0ELb0EE21compare_exchange_weakERVjRjjNS_12memory_orderES7_.exit.i.i ]
  %21 = and i32 %.0.lcssa.i.i, 2
  %.not.i.i = icmp eq i32 %21, 0
  br i1 %.not.i.i, label %_ZN5boost7atomics6detail9lock_pool12_GLOBAL__N_110lock_state6unlockEv.exit.i.preheader, label %22

22:                                               ; preds = %._crit_edge.i.i
  %23 = tail call i64 (i64, ...) @syscall(i64 noundef 202, ptr noundef nonnull align 8 dereferenceable(24) %0, i32 noundef 129, i32 noundef 1, ptr noundef null, ptr noundef null, i32 noundef 0) #17
  %24 = and i64 %23, 4294967295
  %25 = icmp eq i64 %24, 0
  br i1 %25, label %26, label %_ZN5boost7atomics6detail9lock_pool12_GLOBAL__N_110lock_state6unlockEv.exit.i.preheader

26:                                               ; preds = %22
  %27 = and i32 %.lcssa.i.i, -4
  %28 = cmpxchg volatile ptr %0, i32 %.lcssa.i.i, i32 %27 monotonic monotonic, align 4
  br label %_ZN5boost7atomics6detail9lock_pool12_GLOBAL__N_110lock_state6unlockEv.exit.i.preheader

_ZN5boost7atomics6detail9lock_pool12_GLOBAL__N_110lock_state6unlockEv.exit.i.preheader: ; preds = %26, %22, %._crit_edge.i.i
  br label %_ZN5boost7atomics6detail9lock_pool12_GLOBAL__N_110lock_state6unlockEv.exit.i

_ZN5boost7atomics6detail9lock_pool12_GLOBAL__N_110lock_state6unlockEv.exit.i: ; preds = %_ZN5boost7atomics6detail9lock_pool12_GLOBAL__N_110lock_state6unlockEv.exit.i.preheader, %_ZN5boost7atomics6detail9lock_pool12_GLOBAL__N_110lock_state6unlockEv.exit.i
  %29 = tail call i64 (i64, ...) @syscall(i64 noundef 202, ptr noundef nonnull %5, i32 noundef 128, i32 noundef %6, ptr noundef null, ptr noundef null, i32 noundef 0) #17
  %30 = and i64 %29, 4294967295
  %.not.i = icmp eq i64 %30, 4
  br i1 %.not.i, label %_ZN5boost7atomics6detail9lock_pool12_GLOBAL__N_110lock_state6unlockEv.exit.i, label %_ZN5boost7atomics6detail26core_operations_gcc_atomicILm4ELb0ELb0EE4loadERVKjNS_12memory_orderE.exit.i.i

_ZN5boost7atomics6detail26core_operations_gcc_atomicILm4ELb0ELb0EE4loadERVKjNS_12memory_orderE.exit.i.i: ; preds = %_ZN5boost7atomics6detail9lock_pool12_GLOBAL__N_110lock_state6unlockEv.exit.i, %.critedge.i.i
  %.028.i.i = phi i32 [ %38, %.critedge.i.i ], [ 0, %_ZN5boost7atomics6detail9lock_pool12_GLOBAL__N_110lock_state6unlockEv.exit.i ]
  %31 = load atomic volatile i32, ptr %0 monotonic, align 4
  %32 = and i32 %31, 1
  %33 = icmp eq i32 %32, 0
  br i1 %33, label %34, label %.critedge.i.i, !prof !9

34:                                               ; preds = %_ZN5boost7atomics6detail26core_operations_gcc_atomicILm4ELb0ELb0EE4loadERVKjNS_12memory_orderE.exit.i.i
  %35 = or disjoint i32 %31, 1
  %36 = cmpxchg volatile ptr %0, i32 %31, i32 %35 acquire monotonic, align 4
  %37 = extractvalue { i32, i1 } %36, 1
  br i1 %37, label %_ZN5boost7atomics6detail9lock_pool12_GLOBAL__N_110wait_state4waitERNS3_10lock_stateE.exit, label %.critedge.i.i

.critedge.i.i:                                    ; preds = %34, %_ZN5boost7atomics6detail26core_operations_gcc_atomicILm4ELb0ELb0EE4loadERVKjNS_12memory_orderE.exit.i.i
  tail call void asm sideeffect "pause;", "~{memory},~{dirflag},~{fpsr},~{flags}"() #17, !srcloc !10
  %38 = add nuw nsw i32 %.028.i.i, 1
  %exitcond.not.i.i = icmp eq i32 %38, 10
  br i1 %exitcond.not.i.i, label %39, label %_ZN5boost7atomics6detail26core_operations_gcc_atomicILm4ELb0ELb0EE4loadERVKjNS_12memory_orderE.exit.i.i, !llvm.loop !11

39:                                               ; preds = %.critedge.i.i
  %40 = load atomic volatile i32, ptr %0 monotonic, align 4
  br label %41

41:                                               ; preds = %.backedge, %39
  %.0.i8.i.i = phi i32 [ %40, %39 ], [ %.0.i8.i.i.be, %.backedge ]
  %42 = and i32 %.0.i8.i.i, 1
  %43 = icmp eq i32 %42, 0
  br i1 %43, label %44, label %49, !prof !9

44:                                               ; preds = %41
  %45 = or disjoint i32 %.0.i8.i.i, 1
  %46 = cmpxchg weak volatile ptr %0, i32 %.0.i8.i.i, i32 %45 acquire monotonic, align 4
  %47 = extractvalue { i32, i1 } %46, 1
  br i1 %47, label %_ZN5boost7atomics6detail9lock_pool12_GLOBAL__N_110wait_state4waitERNS3_10lock_stateE.exit, label %_ZN5boost7atomics6detail26core_operations_gcc_atomicILm4ELb0ELb0EE21compare_exchange_weakERVjRjjNS_12memory_orderES7_.exit.i.i.i

_ZN5boost7atomics6detail26core_operations_gcc_atomicILm4ELb0ELb0EE21compare_exchange_weakERVjRjjNS_12memory_orderES7_.exit.i.i.i: ; preds = %44
  %48 = extractvalue { i32, i1 } %46, 0
  br label %.backedge

49:                                               ; preds = %41
  %50 = or i32 %.0.i8.i.i, 2
  %51 = cmpxchg weak volatile ptr %0, i32 %.0.i8.i.i, i32 %50 monotonic monotonic, align 4
  %52 = extractvalue { i32, i1 } %51, 1
  br i1 %52, label %_ZN5boost7atomics6detail26core_operations_gcc_atomicILm4ELb0ELb0EE4loadERVKjNS_12memory_orderE.exit.i.i.i, label %_ZN5boost7atomics6detail26core_operations_gcc_atomicILm4ELb0ELb0EE21compare_exchange_weakERVjRjjNS_12memory_orderES7_.exit6.i.i.i

_ZN5boost7atomics6detail26core_operations_gcc_atomicILm4ELb0ELb0EE21compare_exchange_weakERVjRjjNS_12memory_orderES7_.exit6.i.i.i: ; preds = %49
  %53 = extractvalue { i32, i1 } %51, 0
  br label %.backedge

_ZN5boost7atomics6detail26core_operations_gcc_atomicILm4ELb0ELb0EE4loadERVKjNS_12memory_orderE.exit.i.i.i: ; preds = %49
  %54 = tail call i64 (i64, ...) @syscall(i64 noundef 202, ptr noundef nonnull align 8 dereferenceable(24) %0, i32 noundef 128, i32 noundef %50, ptr noundef null, ptr noundef null, i32 noundef 0) #17
  %55 = load atomic volatile i32, ptr %0 monotonic, align 4
  br label %.backedge

.backedge:                                        ; preds = %_ZN5boost7atomics6detail26core_operations_gcc_atomicILm4ELb0ELb0EE4loadERVKjNS_12memory_orderE.exit.i.i.i, %_ZN5boost7atomics6detail26core_operations_gcc_atomicILm4ELb0ELb0EE21compare_exchange_weakERVjRjjNS_12memory_orderES7_.exit6.i.i.i, %_ZN5boost7atomics6detail26core_operations_gcc_atomicILm4ELb0ELb0EE21compare_exchange_weakERVjRjjNS_12memory_orderES7_.exit.i.i.i
  %.0.i8.i.i.be = phi i32 [ %48, %_ZN5boost7atomics6detail26core_operations_gcc_atomicILm4ELb0ELb0EE21compare_exchange_weakERVjRjjNS_12memory_orderES7_.exit.i.i.i ], [ %55, %_ZN5boost7atomics6detail26core_operations_gcc_atomicILm4ELb0ELb0EE4loadERVKjNS_12memory_orderE.exit.i.i.i ], [ %53, %_ZN5boost7atomics6detail26core_operations_gcc_atomicILm4ELb0ELb0EE21compare_exchange_weakERVjRjjNS_12memory_orderES7_.exit6.i.i.i ]
  br label %41, !llvm.loop !12

_ZN5boost7atomics6detail9lock_pool12_GLOBAL__N_110wait_state4waitERNS3_10lock_stateE.exit: ; preds = %34, %44
  %56 = load i32, ptr %7, align 4, !tbaa !27
  %57 = add i32 %56, -1
  store i32 %57, ptr %7, align 4, !tbaa !27
  br label %64

58:                                               ; preds = %2
  tail call fastcc void @_ZN5boost7atomics6detail9lock_pool12_GLOBAL__N_110lock_state6unlockEv(ptr noundef nonnull align 8 dereferenceable(24) %0) #17
  call void @llvm.lifetime.start.p0(i64 16, ptr nonnull %3) #17
  %59 = getelementptr inbounds nuw i8, ptr %3, i64 8
  store i64 0, ptr %3, align 8
  store i64 1000, ptr %59, align 8, !tbaa !31
  %60 = invoke i32 @nanosleep(ptr noundef nonnull %3, ptr noundef null)
          to label %_ZN5boost7atomics6detail9wait_someEv.exit unwind label %61

61:                                               ; preds = %58
  %62 = landingpad { ptr, i32 }
          catch ptr null
  %63 = extractvalue { ptr, i32 } %62, 0
  call void @__clang_call_terminate(ptr %63) #18
  unreachable

_ZN5boost7atomics6detail9wait_someEv.exit:        ; preds = %58
  call void @llvm.lifetime.end.p0(i64 16, ptr nonnull %3) #17
  call fastcc void @_ZN5boost7atomics6detail9lock_pool12_GLOBAL__N_110lock_state9long_lockEv(ptr noundef nonnull align 8 dereferenceable(24) %0) #17
  br label %64

64:                                               ; preds = %_ZN5boost7atomics6detail9wait_someEv.exit, %_ZN5boost7atomics6detail9lock_pool12_GLOBAL__N_110wait_state4waitERNS3_10lock_stateE.exit
  ret void
}